target datalayout = "e-m:e-p270:32:32-p271:32:32-p272:64:64-i64:64-i128:128-f80:128-n8:16:32:64-S128"
target triple = "x86_64-pc-linux-gnu"

%class.SystemProperty = type <{ %class.PathString, ptr, ptr, i8, i8, [6 x i8] }>
%class.PathString = type { ptr }

@.str.22 = private unnamed_addr constant [64 x i8] c"Cannot use the following option when dumping the shared archive\00", align 1
@.str.23 = private unnamed_addr constant [74 x i8] c"Dumping the shared archive is not supported with an exploded module build\00", align 1
@_ZZL34find_any_unsupported_module_optionvE29unsupported_module_properties = internal global [3 x ptr] [ptr @.str.35, ptr @.str.36, ptr @.str.37], align 16
@_ZZL34find_any_unsupported_module_optionvE26unsupported_module_options = internal global [3 x ptr] [ptr @.str.38, ptr @.str.39, ptr @.str.40], align 16
@_ZN9Arguments18_system_propertiesE = external global ptr, align 8
@_ZN9Arguments11_has_jimageE = external global i8, align 1

; Function Attrs: mustprogress nounwind uwtable
define linkonce_odr hidden noundef ptr @_ZNK14SystemProperty4nextEv(ptr noundef nonnull align 8 dereferenceable(26) %0) #1 comdat align 2 {
  %2 = alloca ptr, align 8
  store ptr %0, ptr %2, align 8
  %3 = load ptr, ptr %2, align 8
  %4 = getelementptr inbounds %class.SystemProperty, ptr %3, i32 0, i32 2
  %5 = load ptr, ptr %4, align 8
  ret ptr %5
}

; Function Attrs: mustprogress nounwind uwtable
define linkonce_odr hidden noundef ptr @_ZNK14SystemProperty3keyEv(ptr noundef nonnull align 8 dereferenceable(26) %0) #1 comdat align 2 {
  %2 = alloca ptr, align 8
  store ptr %0, ptr %2, align 8
  %3 = load ptr, ptr %2, align 8
  %4 = getelementptr inbounds %class.SystemProperty, ptr %3, i32 0, i32 1
  %5 = load ptr, ptr %4, align 8
  ret ptr %5
}

; Function Attrs: mustprogress nounwind uwtable
define linkonce_odr hidden noundef ptr @_ZN9Arguments17system_propertiesEv() #1 comdat align 2 {
  %1 = load ptr, ptr @_ZN9Arguments18_system_propertiesE, align 8
  ret ptr %1
}

; Function Attrs: mustprogress nounwind uwtable
define linkonce_odr hidden noundef zeroext i1 @_ZN9Arguments10has_jimageEv() #1 comdat align 2 {
  %1 = load i8, ptr @_ZN9Arguments11_has_jimageE, align 1
  %2 = trunc i8 %1 to i1
  ret i1 %2
}

; Function Attrs: mustprogress nounwind uwtable
define internal noundef ptr @_ZL34find_any_unsupported_module_optionv() #1 {
  %1 = alloca ptr, align 8
  %2 = alloca ptr, align 8
  %3 = alloca i32, align 4
  %4 = call noundef ptr @_ZN9Arguments17system_propertiesEv()
  store ptr %4, ptr %2, align 8
  br label %5

5:                                                ; preds = %31, %0
  %6 = load ptr, ptr %2, align 8
  %7 = icmp ne ptr %6, null
  br i1 %7, label %8, label %34

8:                                                ; preds = %5
  store i32 0, ptr %3, align 4
  br label %9

9:                                                ; preds = %28, %8
  %10 = load i32, ptr %3, align 4
  %11 = zext i32 %10 to i64
  %12 = icmp ult i64 %11, 3
  br i1 %12, label %13, label %31

13:                                               ; preds = %9
  %14 = load ptr, ptr %2, align 8
  %15 = call noundef ptr @_ZNK14SystemProperty3keyEv(ptr noundef nonnull align 8 dereferenceable(26) %14)
  %16 = load i32, ptr %3, align 4
  %17 = zext i32 %16 to i64
  %18 = getelementptr inbounds [3 x ptr], ptr @_ZZL34find_any_unsupported_module_optionvE29unsupported_module_properties, i64 0, i64 %17
  %19 = load ptr, ptr %18, align 8
  %20 = call i32 @strcmp(ptr noundef %15, ptr noundef %19) #6
  %21 = icmp eq i32 %20, 0
  br i1 %21, label %22, label %27

22:                                               ; preds = %13
  %23 = load i32, ptr %3, align 4
  %24 = zext i32 %23 to i64
  %25 = getelementptr inbounds [3 x ptr], ptr @_ZZL34find_any_unsupported_module_optionvE26unsupported_module_options, i64 0, i64 %24
  %26 = load ptr, ptr %25, align 8
  store ptr %26, ptr %1, align 8
  br label %35

27:                                               ; preds = %13
  br label %28

28:                                               ; preds = %27
  %29 = load i32, ptr %3, align 4
  %30 = add i32 %29, 1
  store i32 %30, ptr %3, align 4
  br label %9, !llvm.loop !8

31:                                               ; preds = %9
  %32 = load ptr, ptr %2, align 8
  %33 = call noundef ptr @_ZNK14SystemProperty4nextEv(ptr noundef nonnull align 8 dereferenceable(26) %32)
  store ptr %33, ptr %2, align 8
  br label %5, !llvm.loop !9

34:                                               ; preds = %5
  store ptr null, ptr %1, align 8
  br label %35

35:                                               ; preds = %34, %22
  %36 = load ptr, ptr %1, align 8
  ret ptr %36
}

; Function Attrs: mustprogress nounwind uwtable
define hidden void @_ZN9CDSConfig40check_unsupported_dumping_module_optionsEv() #1 align 2 {
  %1 = alloca ptr, align 8
  %2 = call noundef ptr @_ZL34find_any_unsupported_module_optionv()
  store ptr %2, ptr %1, align 8
  %3 = load ptr, ptr %1, align 8
  %4 = icmp ne ptr %3, null
  br i1 %4, label %5, label %7

5:                                                ; preds = %0
  %6 = load ptr, ptr %1, align 8
  call void @_Z29vm_exit_during_initializationPKcS0_(ptr noundef @.str.22, ptr noundef %6)
  br label %7

7:                                                ; preds = %5, %0
  %8 = call noundef zeroext i1 @_ZN9Arguments10has_jimageEv()
  br i1 %8, label %10, label %9

9:                                                ; preds = %7
  call void @_Z29vm_exit_during_initializationPKcS0_(ptr noundef @.str.23, ptr noundef null)
  br label %10

10:                                               ; preds = %9, %7
  ret void
}