; Function Attrs: mustprogress nounwind uwtable
define hidden void @_ZN9CDSConfig40check_unsupported_dumping_module_optionsEv() local_unnamed_addr #2 align 2 {
  %.0712.i = load ptr, ptr @_ZN9Arguments18_system_propertiesE, align 8
  %.not13.i = icmp eq ptr %.0712.i, null
  br i1 %.not13.i, label %_ZL34find_any_unsupported_module_optionv.exit.thread, label %.preheader.i

.preheader.i:                                     ; preds = %0, %9
  %.0714.i = phi ptr [ %.07.i, %9 ], [ %.0712.i, %0 ]
  %1 = getelementptr inbounds i8, ptr %.0714.i, i64 8
  %2 = load ptr, ptr %1, align 8
  br label %4

3:                                                ; preds = %4
  %indvars.iv.next.i = add nuw nsw i64 %indvars.iv.i, 1
  %exitcond.not.i = icmp eq i64 %indvars.iv.next.i, 3
  br i1 %exitcond.not.i, label %9, label %4, !llvm.loop !6

4:                                                ; preds = %3, %.preheader.i
  %indvars.iv.i = phi i64 [ 0, %.preheader.i ], [ %indvars.iv.next.i, %3 ]
  %5 = getelementptr inbounds [3 x ptr], ptr @_ZZL34find_any_unsupported_module_optionvE29unsupported_module_properties, i64 0, i64 %indvars.iv.i
  %6 = load ptr, ptr %5, align 8
  %7 = tail call i32 @strcmp(ptr noundef nonnull dereferenceable(1) %2, ptr noundef nonnull dereferenceable(1) %6) #10
  %8 = icmp eq i32 %7, 0
  br i1 %8, label %_ZL34find_any_unsupported_module_optionv.exit, label %3

9:                                                ; preds = %3
  %10 = getelementptr inbounds i8, ptr %.0714.i, i64 16
  %.07.i = load ptr, ptr %10, align 8
  %.not.i = icmp eq ptr %.07.i, null
  br i1 %.not.i, label %_ZL34find_any_unsupported_module_optionv.exit.thread, label %.preheader.i, !llvm.loop !8

_ZL34find_any_unsupported_module_optionv.exit:    ; preds = %4
  %11 = getelementptr inbounds [3 x ptr], ptr @_ZZL34find_any_unsupported_module_optionvE26unsupported_module_options, i64 0, i64 %indvars.iv.i
  %12 = load ptr, ptr %11, align 8
  tail call void @_Z29vm_exit_during_initializationPKcS0_(ptr noundef nonnull @.str.22, ptr noundef nonnull %12) #9
  br label %_ZL34find_any_unsupported_module_optionv.exit.thread

_ZL34find_any_unsupported_module_optionv.exit.thread: ; preds = %9, %0, %_ZL34find_any_unsupported_module_optionv.exit
  %13 = load i8, ptr @_ZN9Arguments11_has_jimageE, align 1
  %14 = trunc i8 %13 to i1
  br i1 %14, label %16, label %15

15:                                               ; preds = %_ZL34find_any_unsupported_module_optionv.exit.thread
  tail call void @_Z29vm_exit_during_initializationPKcS0_(ptr noundef nonnull @.str.23, ptr noundef null) #9
  br label %16

16:                                               ; preds = %15, %_ZL34find_any_unsupported_module_optionv.exit.thread
  ret void
}